target datalayout = "e-m:e-p270:32:32-p271:32:32-p272:64:64-i64:64-i128:128-f80:128-n8:16:32:64-S128"
target triple = "x86_64-unknown-linux-gnu"

%"class.google::protobuf::compiler::cpp::(anonymous namespace)::SingularEnum" = type { %"class.google::protobuf::compiler::cpp::FieldGeneratorBase.base", ptr, ptr }
%"class.google::protobuf::compiler::cpp::FieldGeneratorBase.base" = type <{ ptr, ptr, ptr, ptr, %"class.absl::lts_20230802::flat_hash_map", i8, i8, i8, i8, i8, i8, i8, i8, i8, i8, i8, i8, i8, [3 x i8], i32, i8 }>
%"class.absl::lts_20230802::flat_hash_map" = type { %"class.absl::lts_20230802::container_internal::raw_hash_map" }
%"class.absl::lts_20230802::container_internal::raw_hash_map" = type { %"class.absl::lts_20230802::container_internal::raw_hash_set.28" }
%"class.absl::lts_20230802::container_internal::raw_hash_set.28" = type { %"class.absl::lts_20230802::container_internal::CompressedTuple.29" }
%"class.absl::lts_20230802::container_internal::CompressedTuple.29" = type { %"struct.absl::lts_20230802::container_internal::internal_compressed_tuple::CompressedTupleImpl.30" }
%"struct.absl::lts_20230802::container_internal::internal_compressed_tuple::CompressedTupleImpl.30" = type { %"struct.absl::lts_20230802::container_internal::internal_compressed_tuple::Storage" }
%"struct.absl::lts_20230802::container_internal::internal_compressed_tuple::Storage" = type { %"class.absl::lts_20230802::container_internal::CommonFields" }
%"class.absl::lts_20230802::container_internal::CommonFields" = type { ptr, ptr, i64, %"class.absl::lts_20230802::container_internal::CompressedTuple.10" }
%"class.absl::lts_20230802::container_internal::CompressedTuple.10" = type { %"struct.absl::lts_20230802::container_internal::internal_compressed_tuple::CompressedTupleImpl.11" }
%"struct.absl::lts_20230802::container_internal::internal_compressed_tuple::CompressedTupleImpl.11" = type { %"struct.absl::lts_20230802::container_internal::internal_compressed_tuple::Storage.12" }
%"struct.absl::lts_20230802::container_internal::internal_compressed_tuple::Storage.12" = type { i64 }
%"class.std::vector" = type { %"struct.std::_Vector_base" }
%"struct.std::_Vector_base" = type { %"struct.std::_Vector_base<google::protobuf::io::Printer::Sub, std::allocator<google::protobuf::io::Printer::Sub>>::_Vector_impl" }
%"struct.std::_Vector_base<google::protobuf::io::Printer::Sub, std::allocator<google::protobuf::io::Printer::Sub>>::_Vector_impl" = type { %"struct.std::_Vector_base<google::protobuf::io::Printer::Sub, std::allocator<google::protobuf::io::Printer::Sub>>::_Vector_impl_data" }
%"struct.std::_Vector_base<google::protobuf::io::Printer::Sub, std::allocator<google::protobuf::io::Printer::Sub>>::_Vector_impl_data" = type { ptr, ptr, ptr }

; Function Attrs: mustprogress uwtable
define internal void @_ZNK6google8protobuf8compiler3cpp12_GLOBAL__N_112SingularEnum8MakeVarsEv(ptr noalias sret(%"class.std::vector") align 8 %agg.result, ptr noundef nonnull align 8 dereferenceable(104) %this) unnamed_addr #4 align 2 {
entry:
  %result.ptr = alloca ptr, align 8
  %this.addr = alloca ptr, align 8
  store ptr %agg.result, ptr %result.ptr, align 8
  store ptr %this, ptr %this.addr, align 8
  %this1 = load ptr, ptr %this.addr, align 8
  %field_ = getelementptr inbounds %"class.google::protobuf::compiler::cpp::(anonymous namespace)::SingularEnum", ptr %this1, i32 0, i32 1
  %0 = load ptr, ptr %field_, align 8
  %opts_ = getelementptr inbounds %"class.google::protobuf::compiler::cpp::(anonymous namespace)::SingularEnum", ptr %this1, i32 0, i32 2
  %1 = load ptr, ptr %opts_, align 8
  call void @_ZN6google8protobuf8compiler3cpp12_GLOBAL__N_14VarsEPKNS0_15FieldDescriptorERKNS2_7OptionsE(ptr sret(%"class.std::vector") align 8 %agg.result, ptr noundef %0, ptr noundef nonnull align 8 dereferenceable(206) %1)
  ret void
}